target datalayout = "e-m:e-p270:32:32-p271:32:32-p272:64:64-i64:64-i128:128-f80:128-n8:16:32:64-S128"
target triple = "x86_64-unknown-linux-gnu"

%"struct.OpenImageIO_v2_6_0::pvt::ImageCacheStatistics" = type { i64, i64, i32, i64, i64, i64, i32, double, double, double, double, double, double, i64, i64, i64, i64, i64, i64, i64, i64, i64, i64, i64, float, i64, i64, i64, i32, i32 }
%"class.OpenImageIO_v2_6_0::ustring" = type { ptr }
%"class.tsl::rh::power_of_two_growth_policy" = type { i64 }
%"struct.std::atomic.14" = type { %"struct.std::__atomic_base.15" }
%"struct.std::__atomic_base.15" = type { i32 }
%"class.OpenImageIO_v2_6_0::TextureOpt" = type { i32, i32, %"class.OpenImageIO_v2_6_0::ustring", i32, i32, i32, i32, i32, i8, float, float, float, float, float, ptr, float, %union.anon.86, i32, i32, float, float, i32, i32 }
%union.anon.86 = type { float }
%"class.OpenImageIO_v2_6_0::pvt::ImageCachePerThreadInfo" = type <{ %"class.tsl::robin_map.87", %"class.OpenImageIO_v2_6_0::intrusive_ptr", %"class.OpenImageIO_v2_6_0::intrusive_ptr", %"struct.std::atomic.14", [4 x i8], %"struct.OpenImageIO_v2_6_0::pvt::ImageCacheStatistics", i8, [7 x i8] }>
%"class.tsl::robin_map.87" = type { %"class.tsl::detail_robin_hash::robin_hash.88" }
%"class.tsl::detail_robin_hash::robin_hash.88" = type <{ %"class.tsl::rh::power_of_two_growth_policy", %"class.std::vector.89", ptr, i64, i64, i64, float, i8, [3 x i8], float, i8, [3 x i8] }>
%"class.std::vector.89" = type { %"struct.std::_Vector_base.90" }
%"struct.std::_Vector_base.90" = type { %"struct.std::_Vector_base<tsl::detail_robin_hash::bucket_entry<std::pair<OpenImageIO_v2_6_0::ustring, OpenImageIO_v2_6_0::pvt::ImageCacheFile *>, true>, std::allocator<tsl::detail_robin_hash::bucket_entry<std::pair<OpenImageIO_v2_6_0::ustring, OpenImageIO_v2_6_0::pvt::ImageCacheFile *>, true>>>::_Vector_impl" }
%"struct.std::_Vector_base<tsl::detail_robin_hash::bucket_entry<std::pair<OpenImageIO_v2_6_0::ustring, OpenImageIO_v2_6_0::pvt::ImageCacheFile *>, true>, std::allocator<tsl::detail_robin_hash::bucket_entry<std::pair<OpenImageIO_v2_6_0::ustring, OpenImageIO_v2_6_0::pvt::ImageCacheFile *>, true>>>::_Vector_impl" = type { %"struct.std::_Vector_base<tsl::detail_robin_hash::bucket_entry<std::pair<OpenImageIO_v2_6_0::ustring, OpenImageIO_v2_6_0::pvt::ImageCacheFile *>, true>, std::allocator<tsl::detail_robin_hash::bucket_entry<std::pair<OpenImageIO_v2_6_0::ustring, OpenImageIO_v2_6_0::pvt::ImageCacheFile *>, true>>>::_Vector_impl_data" }
%"struct.std::_Vector_base<tsl::detail_robin_hash::bucket_entry<std::pair<OpenImageIO_v2_6_0::ustring, OpenImageIO_v2_6_0::pvt::ImageCacheFile *>, true>, std::allocator<tsl::detail_robin_hash::bucket_entry<std::pair<OpenImageIO_v2_6_0::ustring, OpenImageIO_v2_6_0::pvt::ImageCacheFile *>, true>>>::_Vector_impl_data" = type { ptr, ptr, ptr }
%"class.OpenImageIO_v2_6_0::intrusive_ptr" = type { ptr }

; Function Attrs: mustprogress uwtable
define hidden void @_ZN18OpenImageIO_v2_6_03pvt17TextureSystemImpl12fade_to_poleEfPfRfRNS0_14ImageCacheFileEPNS0_23ImageCachePerThreadInfoERKNS4_9LevelInfoERNS_10TextureOptEii(ptr noundef nonnull align 8 dereferenceable(184) %this, float noundef %t, ptr noundef %accum, ptr noundef nonnull align 4 dereferenceable(4) %weight, ptr noundef nonnull align 8 dereferenceable(360) %texturefile, ptr noundef %thread_info, ptr noundef nonnull align 8 dereferenceable(376) %levelinfo, ptr noundef nonnull align 8 dereferenceable(104) %options, i32 noundef %miplevel, i32 noundef %nchannels) #7 align 2 {
entry:
  %a.addr.i = alloca ptr, align 8
  %low.addr.i = alloca ptr, align 8
  %high.addr.i = alloca ptr, align 8
  %val.i = alloca float, align 4
  %this.addr = alloca ptr, align 8
  %t.addr = alloca float, align 4
  %accum.addr = alloca ptr, align 8
  %weight.addr = alloca ptr, align 8
  %texturefile.addr = alloca ptr, align 8
  %thread_info.addr = alloca ptr, align 8
  %levelinfo.addr = alloca ptr, align 8
  %options.addr = alloca ptr, align 8
  %miplevel.addr = alloca i32, align 4
  %nchannels.addr = alloca i32, align 4
  %pole = alloca float, align 4
  %polecolor = alloca ptr, align 8
  %ref.tmp = alloca float, align 4
  %ref.tmp6 = alloca float, align 4
  %c = alloca i32, align 4
  store ptr %this, ptr %this.addr, align 8
  store float %t, ptr %t.addr, align 4
  store ptr %accum, ptr %accum.addr, align 8
  store ptr %weight, ptr %weight.addr, align 8
  store ptr %texturefile, ptr %texturefile.addr, align 8
  store ptr %thread_info, ptr %thread_info.addr, align 8
  store ptr %levelinfo, ptr %levelinfo.addr, align 8
  store ptr %options, ptr %options.addr, align 8
  store i32 %miplevel, ptr %miplevel.addr, align 4
  store i32 %nchannels, ptr %nchannels.addr, align 4
  %this1 = load ptr, ptr %this.addr, align 8
  %0 = load float, ptr %t.addr, align 4
  %cmp = fcmp olt float %0, 1.000000e+00
  br i1 %cmp, label %if.then, label %if.else

if.then:                                          ; preds = %entry
  %1 = load float, ptr %t.addr, align 4
  %sub = fsub float 1.000000e+00, %1
  store float %sub, ptr %pole, align 4
  %2 = load ptr, ptr %texturefile.addr, align 8
  %3 = load ptr, ptr %thread_info.addr, align 8
  %4 = load ptr, ptr %levelinfo.addr, align 8
  %5 = load ptr, ptr %thread_info.addr, align 8
  %tile = getelementptr inbounds %"class.OpenImageIO_v2_6_0::pvt::ImageCachePerThreadInfo", ptr %5, i32 0, i32 1
  %6 = load ptr, ptr %options.addr, align 8
  %subimage = getelementptr inbounds %"class.OpenImageIO_v2_6_0::TextureOpt", ptr %6, i32 0, i32 1
  %7 = load i32, ptr %subimage, align 4
  %8 = load i32, ptr %miplevel.addr, align 4
  %call = call noundef ptr @_ZN18OpenImageIO_v2_6_03pvt17TextureSystemImpl10pole_colorERNS0_14ImageCacheFileEPNS0_23ImageCachePerThreadInfoERKNS2_9LevelInfoERNS_13intrusive_ptrINS0_14ImageCacheTileEEEiii(ptr noundef nonnull align 8 dereferenceable(184) %this1, ptr noundef nonnull align 8 dereferenceable(360) %2, ptr noundef %3, ptr noundef nonnull align 8 dereferenceable(376) %4, ptr noundef nonnull align 8 dereferenceable(8) %tile, i32 noundef %7, i32 noundef %8, i32 noundef 0)
  store ptr %call, ptr %polecolor, align 8
  br label %if.end

if.else:                                          ; preds = %entry
  %9 = load float, ptr %t.addr, align 4
  %10 = load float, ptr %t.addr, align 4
  %11 = call float @llvm.floor.f32(float %10)
  %sub2 = fsub float %9, %11
  store float %sub2, ptr %pole, align 4
  %12 = load ptr, ptr %texturefile.addr, align 8
  %13 = load ptr, ptr %thread_info.addr, align 8
  %14 = load ptr, ptr %levelinfo.addr, align 8
  %15 = load ptr, ptr %thread_info.addr, align 8
  %tile3 = getelementptr inbounds %"class.OpenImageIO_v2_6_0::pvt::ImageCachePerThreadInfo", ptr %15, i32 0, i32 1
  %16 = load ptr, ptr %options.addr, align 8
  %subimage4 = getelementptr inbounds %"class.OpenImageIO_v2_6_0::TextureOpt", ptr %16, i32 0, i32 1
  %17 = load i32, ptr %subimage4, align 4
  %18 = load i32, ptr %miplevel.addr, align 4
  %call5 = call noundef ptr @_ZN18OpenImageIO_v2_6_03pvt17TextureSystemImpl10pole_colorERNS0_14ImageCacheFileEPNS0_23ImageCachePerThreadInfoERKNS2_9LevelInfoERNS_13intrusive_ptrINS0_14ImageCacheTileEEEiii(ptr noundef nonnull align 8 dereferenceable(184) %this1, ptr noundef nonnull align 8 dereferenceable(360) %12, ptr noundef %13, ptr noundef nonnull align 8 dereferenceable(376) %14, ptr noundef nonnull align 8 dereferenceable(8) %tile3, i32 noundef %17, i32 noundef %18, i32 noundef 1)
  store ptr %call5, ptr %polecolor, align 8
  br label %if.end

if.end:                                           ; preds = %if.else, %if.then
  store float 0.000000e+00, ptr %ref.tmp, align 4
  store float 1.000000e+00, ptr %ref.tmp6, align 4
  store ptr %pole, ptr %a.addr.i, align 8
  store ptr %ref.tmp, ptr %low.addr.i, align 8
  store ptr %ref.tmp6, ptr %high.addr.i, align 8
  %19 = load ptr, ptr %a.addr.i, align 8
  %20 = load float, ptr %19, align 4
  store float %20, ptr %val.i, align 4
  %21 = load ptr, ptr %low.addr.i, align 8
  %22 = load float, ptr %21, align 4
  %23 = load float, ptr %val.i, align 4
  %cmp.i = fcmp ole float %22, %23
  br i1 %cmp.i, label %if.end.i, label %if.then.i

if.then.i:                                        ; preds = %if.end
  %24 = load ptr, ptr %low.addr.i, align 8
  %25 = load float, ptr %24, align 4
  store float %25, ptr %val.i, align 4
  br label %if.end.i

if.end.i:                                         ; preds = %if.then.i, %if.end
  %26 = load float, ptr %val.i, align 4
  %27 = load ptr, ptr %high.addr.i, align 8
  %28 = load float, ptr %27, align 4
  %cmp1.i = fcmp ogt float %26, %28
  br i1 %cmp1.i, label %if.then2.i, label %_ZN18OpenImageIO_v2_6_05clampIfEET_RKS1_S3_S3_.exit

if.then2.i:                                       ; preds = %if.end.i
  %29 = load ptr, ptr %high.addr.i, align 8
  %30 = load float, ptr %29, align 4
  store float %30, ptr %val.i, align 4
  br label %_ZN18OpenImageIO_v2_6_05clampIfEET_RKS1_S3_S3_.exit

_ZN18OpenImageIO_v2_6_05clampIfEET_RKS1_S3_S3_.exit: ; preds = %if.then2.i, %if.end.i
  %31 = load float, ptr %val.i, align 4
  store float %31, ptr %pole, align 4
  %32 = load float, ptr %pole, align 4
  %33 = load float, ptr %pole, align 4
  %mul = fmul float %33, %32
  store float %mul, ptr %pole, align 4
  %34 = load ptr, ptr %options.addr, align 8
  %firstchannel = getelementptr inbounds %"class.OpenImageIO_v2_6_0::TextureOpt", ptr %34, i32 0, i32 0
  %35 = load i32, ptr %firstchannel, align 8
  %36 = load ptr, ptr %polecolor, align 8
  %idx.ext = sext i32 %35 to i64
  %add.ptr = getelementptr inbounds float, ptr %36, i64 %idx.ext
  store ptr %add.ptr, ptr %polecolor, align 8
  store i32 0, ptr %c, align 4
  br label %for.cond

for.cond:                                         ; preds = %for.inc, %_ZN18OpenImageIO_v2_6_05clampIfEET_RKS1_S3_S3_.exit
  %37 = load i32, ptr %c, align 4
  %38 = load i32, ptr %nchannels.addr, align 4
  %cmp8 = icmp slt i32 %37, %38
  br i1 %cmp8, label %for.body, label %for.end

for.body:                                         ; preds = %for.cond
  %39 = load ptr, ptr %weight.addr, align 8
  %40 = load float, ptr %39, align 4
  %41 = load float, ptr %pole, align 4
  %mul9 = fmul float %40, %41
  %42 = load ptr, ptr %polecolor, align 8
  %43 = load i32, ptr %c, align 4
  %idxprom = sext i32 %43 to i64
  %arrayidx = getelementptr inbounds float, ptr %42, i64 %idxprom
  %44 = load float, ptr %arrayidx, align 4
  %45 = load ptr, ptr %accum.addr, align 8
  %46 = load i32, ptr %c, align 4
  %idxprom11 = sext i32 %46 to i64
  %arrayidx12 = getelementptr inbounds float, ptr %45, i64 %idxprom11
  %47 = load float, ptr %arrayidx12, align 4
  %48 = call float @llvm.fmuladd.f32(float %mul9, float %44, float %47)
  store float %48, ptr %arrayidx12, align 4
  br label %for.inc

for.inc:                                          ; preds = %for.body
  %49 = load i32, ptr %c, align 4
  %inc = add nsw i32 %49, 1
  store i32 %inc, ptr %c, align 4
  br label %for.cond, !llvm.loop !1239

for.end:                                          ; preds = %for.cond
  %50 = load float, ptr %pole, align 4
  %sub13 = fsub float 1.000000e+00, %50
  %51 = load ptr, ptr %weight.addr, align 8
  %52 = load float, ptr %51, align 4
  %mul14 = fmul float %52, %sub13
  store float %mul14, ptr %51, align 4
  ret void
}