; Function Attrs: mustprogress uwtable
define hidden void @_ZN18OpenImageIO_v2_6_03pvt17TextureSystemImpl12fade_to_poleEfPfRfRNS0_14ImageCacheFileEPNS0_23ImageCachePerThreadInfoERKNS4_9LevelInfoERNS_10TextureOptEii(ptr nocapture noundef nonnull readnone align 8 dereferenceable(184) %this, float noundef %t, ptr nocapture noundef %accum, ptr nocapture noundef nonnull align 4 dereferenceable(4) %weight, ptr nocapture noundef nonnull readonly align 8 dereferenceable(360) %texturefile, ptr nocapture noundef readonly %thread_info, ptr noundef nonnull align 8 dereferenceable(376) %levelinfo, ptr nocapture noundef nonnull readonly align 8 dereferenceable(104) %options, i32 noundef %miplevel, i32 noundef %nchannels) local_unnamed_addr #5 align 2 {
entry:
  %cmp = fcmp olt float %t, 1.000000e+00
  br i1 %cmp, label %if.then, label %if.else

if.then:                                          ; preds = %entry
  %sub = fsub float 1.000000e+00, %t
  br label %if.end

if.else:                                          ; preds = %entry
  %0 = tail call float @llvm.floor.f32(float %t)
  %sub2 = fsub float %t, %0
  br label %if.end

if.end:                                           ; preds = %if.else, %if.then
  %.sink30 = phi i32 [ 1, %if.else ], [ 0, %if.then ]
  %pole.0 = phi float [ %sub2, %if.else ], [ %sub, %if.then ]
  %tile3 = getelementptr inbounds i8, ptr %thread_info, i64 80
  %subimage4 = getelementptr inbounds i8, ptr %options, i64 4
  %1 = load i32, ptr %subimage4, align 4
  %call5 = tail call noundef ptr @_ZN18OpenImageIO_v2_6_03pvt17TextureSystemImpl10pole_colorERNS0_14ImageCacheFileEPNS0_23ImageCachePerThreadInfoERKNS2_9LevelInfoERNS_13intrusive_ptrINS0_14ImageCacheTileEEEiii(ptr nonnull align 8 poison, ptr noundef nonnull align 8 dereferenceable(360) %texturefile, ptr poison, ptr noundef nonnull align 8 dereferenceable(376) %levelinfo, ptr noundef nonnull align 8 dereferenceable(8) %tile3, i32 noundef %1, i32 poison, i32 noundef %.sink30)
  %cmp.i.inv = fcmp oge float %pole.0, 0.000000e+00
  %val.i.0 = select i1 %cmp.i.inv, float %pole.0, float 0.000000e+00
  %cmp1.i = fcmp ogt float %val.i.0, 1.000000e+00
  %val.i.1 = select i1 %cmp1.i, float 1.000000e+00, float %val.i.0
  %mul = fmul float %val.i.1, %val.i.1
  %2 = load i32, ptr %options, align 8
  %idx.ext = sext i32 %2 to i64
  %add.ptr = getelementptr inbounds float, ptr %call5, i64 %idx.ext
  %cmp827 = icmp sgt i32 %nchannels, 0
  br i1 %cmp827, label %for.body.preheader, label %for.end

for.body.preheader:                               ; preds = %if.end
  %wide.trip.count = zext nneg i32 %nchannels to i64
  br label %for.body

for.body:                                         ; preds = %for.body.preheader, %for.body
  %indvars.iv = phi i64 [ 0, %for.body.preheader ], [ %indvars.iv.next, %for.body ]
  %3 = load float, ptr %weight, align 4
  %mul9 = fmul float %mul, %3
  %arrayidx = getelementptr inbounds float, ptr %add.ptr, i64 %indvars.iv
  %4 = load float, ptr %arrayidx, align 4
  %arrayidx12 = getelementptr inbounds float, ptr %accum, i64 %indvars.iv
  %5 = load float, ptr %arrayidx12, align 4
  %6 = tail call float @llvm.fmuladd.f32(float %mul9, float %4, float %5)
  store float %6, ptr %arrayidx12, align 4
  %indvars.iv.next = add nuw nsw i64 %indvars.iv, 1
  %exitcond.not = icmp eq i64 %indvars.iv.next, %wide.trip.count
  br i1 %exitcond.not, label %for.end, label %for.body, !llvm.loop !123

for.end:                                          ; preds = %for.body, %if.end
  %sub13 = fsub float 1.000000e+00, %mul
  %7 = load float, ptr %weight, align 4
  %mul14 = fmul float %sub13, %7
  store float %mul14, ptr %weight, align 4
  ret void
}